; ModuleID = '60/1682.c'
source_filename = "60/1682.c"
target datalayout = "e-m:e-p270:32:32-p271:32:32-p272:64:64-i64:64-f80:128-n8:16:32:64-S128"
target triple = "x86_64-pc-linux-gnu"

@.str = private unnamed_addr constant [3 x i8] c"%d\00", align 1
@.str.1 = private unnamed_addr constant [7 x i8] c"%d %d\0A\00", align 1
@.str.2 = private unnamed_addr constant [7 x i8] c"empty\0A\00", align 1

; Function Attrs: noinline nounwind uwtable
define dso_local i32 @isPrime(i32 %0) #0 {
  %2 = alloca i32, align 4
  %3 = alloca i32, align 4
  %4 = alloca i32, align 4
  %5 = alloca i32, align 4
  store i32 %0, i32* %3, align 4
  store i32 0, i32* %4, align 4
  store i32 2, i32* %5, align 4
  br label %6

6:                                                ; preds = %17, %1
  %7 = load i32, i32* %5, align 4
  %8 = load i32, i32* %3, align 4
  %9 = icmp slt i32 %7, %8
  br i1 %9, label %10, label %20

10:                                               ; preds = %6
  %11 = load i32, i32* %3, align 4
  %12 = load i32, i32* %5, align 4
  %13 = srem i32 %11, %12
  %14 = icmp eq i32 %13, 0
  br i1 %14, label %15, label %16

15:                                               ; preds = %10
  store i32 0, i32* %2, align 4
  br label %25

16:                                               ; preds = %10
  br label %17

17:                                               ; preds = %16
  %18 = load i32, i32* %5, align 4
  %19 = add nsw i32 %18, 1
  store i32 %19, i32* %5, align 4
  br label %6

20:                                               ; preds = %6
  %21 = load i32, i32* %4, align 4
  %22 = icmp eq i32 %21, 0
  br i1 %22, label %23, label %24

23:                                               ; preds = %20
  store i32 1, i32* %2, align 4
  br label %25

24:                                               ; preds = %20
  store i32 0, i32* %2, align 4
  br label %25

25:                                               ; preds = %24, %23, %15
  %26 = load i32, i32* %2, align 4
  ret i32 %26
}

; Function Attrs: noinline nounwind uwtable
define dso_local i32 @main() #0 {
  %1 = alloca i32, align 4
  %2 = alloca i32, align 4
  %3 = alloca i32, align 4
  %4 = alloca i32, align 4
  store i32 0, i32* %1, align 4
  store i32 0, i32* %4, align 4
  %5 = call i32 (i8*, ...) @__isoc99_scanf(i8* getelementptr inbounds ([3 x i8], [3 x i8]* @.str, i64 0, i64 0), i32* %2)
  store i32 3, i32* %3, align 4
  br label %6

6:                                                ; preds = %28, %0
  %7 = load i32, i32* %3, align 4
  %8 = load i32, i32* %2, align 4
  %9 = sub nsw i32 %8, 1
  %10 = icmp slt i32 %7, %9
  br i1 %10, label %11, label %31

11:                                               ; preds = %6
  %12 = load i32, i32* %3, align 4
  %13 = call i32 @isPrime(i32 %12)
  %14 = icmp ne i32 %13, 0
  br i1 %14, label %15, label %27

15:                                               ; preds = %11
  %16 = load i32, i32* %3, align 4
  %17 = add nsw i32 %16, 2
  %18 = call i32 @isPrime(i32 %17)
  %19 = icmp ne i32 %18, 0
  br i1 %19, label %20, label %27

20:                                               ; preds = %15
  %21 = load i32, i32* %3, align 4
  %22 = load i32, i32* %3, align 4
  %23 = add nsw i32 %22, 2
  %24 = call i32 (i8*, ...) @printf(i8* getelementptr inbounds ([7 x i8], [7 x i8]* @.str.1, i64 0, i64 0), i32 %21, i32 %23)
  %25 = load i32, i32* %4, align 4
  %26 = add nsw i32 %25, 1
  store i32 %26, i32* %4, align 4
  br label %27

27:                                               ; preds = %20, %15, %11
  br label %28

28:                                               ; preds = %27
  %29 = load i32, i32* %3, align 4
  %30 = add nsw i32 %29, 2
  store i32 %30, i32* %3, align 4
  br label %6

31:                                               ; preds = %6
  %32 = load i32, i32* %4, align 4
  %33 = icmp ne i32 %32, 0
  br i1 %33, label %36, label %34

34:                                               ; preds = %31
  %35 = call i32 (i8*, ...) @printf(i8* getelementptr inbounds ([7 x i8], [7 x i8]* @.str.2, i64 0, i64 0))
  br label %36

36:                                               ; preds = %34, %31
  ret i32 0
}

declare dso_local i32 @__isoc99_scanf(i8*, ...) #1

declare dso_local i32 @printf(i8*, ...) #1


!llvm.module.flags = !{!0}
!llvm.ident = !{!1}

!0 = !{i32 1, !"wchar_size", i32 4}
!1 = !{!"clang version 10.0.0-4ubuntu1 "}
